target datalayout = "e-m:e-p270:32:32-p271:32:32-p272:64:64-i64:64-i128:128-f80:128-n8:16:32:64-S128"
target triple = "x86_64-pc-linux-gnu"

%struct.Vec_Ptr_t_ = type { i32, i32, ptr }

@.str.3 = private unnamed_addr constant [30 x i8] c"Collected %6d class members.\0A\00", align 1
@.str.4 = private unnamed_addr constant [38 x i8] c"Collected %6d classes. (Ave = %5.2f)\0A\00", align 1

; Function Attrs: inlinehint nounwind uwtable
define internal void @Vec_PtrFree(ptr noundef %0) #2 {
  %2 = alloca ptr, align 8
  store ptr %0, ptr %2, align 8, !tbaa !8
  %3 = load ptr, ptr %2, align 8, !tbaa !8
  %4 = getelementptr inbounds nuw %struct.Vec_Ptr_t_, ptr %3, i32 0, i32 2
  %5 = load ptr, ptr %4, align 8, !tbaa !25
  %6 = icmp ne ptr %5, null
  br i1 %6, label %7, label %13

7:                                                ; preds = %1
  %8 = load ptr, ptr %2, align 8, !tbaa !8
  %9 = getelementptr inbounds nuw %struct.Vec_Ptr_t_, ptr %8, i32 0, i32 2
  %10 = load ptr, ptr %9, align 8, !tbaa !25
  call void @free(ptr noundef %10) #7
  %11 = load ptr, ptr %2, align 8, !tbaa !8
  %12 = getelementptr inbounds nuw %struct.Vec_Ptr_t_, ptr %11, i32 0, i32 2
  store ptr null, ptr %12, align 8, !tbaa !25
  br label %14

13:                                               ; preds = %1
  br label %14

14:                                               ; preds = %13, %7
  %15 = load ptr, ptr %2, align 8, !tbaa !8
  %16 = icmp ne ptr %15, null
  br i1 %16, label %17, label %19

17:                                               ; preds = %14
  %18 = load ptr, ptr %2, align 8, !tbaa !8
  call void @free(ptr noundef %18) #7
  store ptr null, ptr %2, align 8, !tbaa !8
  br label %20

19:                                               ; preds = %14
  br label %20

20:                                               ; preds = %19, %17
  ret void
}

; Function Attrs: inlinehint nounwind uwtable
define internal i32 @Vec_PtrSize(ptr noundef %0) #2 {
  %2 = alloca ptr, align 8
  store ptr %0, ptr %2, align 8, !tbaa !8
  %3 = load ptr, ptr %2, align 8, !tbaa !8
  %4 = getelementptr inbounds nuw %struct.Vec_Ptr_t_, ptr %3, i32 0, i32 1
  %5 = load i32, ptr %4, align 4, !tbaa !22
  ret i32 %5
}

; Function Attrs: nounwind uwtable
define void @Abc_NtkHaigResetReprsOld(ptr noundef %0) #0 {
  %2 = alloca ptr, align 8
  %3 = alloca ptr, align 8
  %4 = alloca ptr, align 8
  store ptr %0, ptr %2, align 8, !tbaa !3
  call void @llvm.lifetime.start.p0(i64 8, ptr %3) #7
  call void @llvm.lifetime.start.p0(i64 8, ptr %4) #7
  %5 = load ptr, ptr %2, align 8, !tbaa !3
  %6 = call ptr @Abc_NtkHaigCollectMembers(ptr noundef %5)
  store ptr %6, ptr %3, align 8, !tbaa !8
  %7 = load ptr, ptr %3, align 8, !tbaa !8
  %8 = call i32 @Vec_PtrSize(ptr noundef %7)
  %9 = call i32 (ptr, ...) @printf(ptr noundef @.str.3, i32 noundef %8)
  %10 = load ptr, ptr %3, align 8, !tbaa !8
  %11 = call ptr @Abc_NtkHaigCreateClasses(ptr noundef %10)
  store ptr %11, ptr %4, align 8, !tbaa !8
  %12 = load ptr, ptr %4, align 8, !tbaa !8
  %13 = call i32 @Vec_PtrSize(ptr noundef %12)
  %14 = load ptr, ptr %3, align 8, !tbaa !8
  %15 = call i32 @Vec_PtrSize(ptr noundef %14)
  %16 = sitofp i32 %15 to float
  %17 = load ptr, ptr %4, align 8, !tbaa !8
  %18 = call i32 @Vec_PtrSize(ptr noundef %17)
  %19 = sitofp i32 %18 to float
  %20 = fdiv float %16, %19
  %21 = fpext float %20 to double
  %22 = call i32 (ptr, ...) @printf(ptr noundef @.str.4, i32 noundef %13, double noundef %21)
  %23 = load ptr, ptr %3, align 8, !tbaa !8
  call void @Vec_PtrFree(ptr noundef %23)
  %24 = load ptr, ptr %4, align 8, !tbaa !8
  call void @Vec_PtrFree(ptr noundef %24)
  call void @llvm.lifetime.end.p0(i64 8, ptr %4) #7
  call void @llvm.lifetime.end.p0(i64 8, ptr %3) #7
  ret void
}