; Function Attrs: nounwind uwtable
define void @Abc_NtkHaigResetReprsOld(ptr noundef readonly captures(none) %0) local_unnamed_addr #0 {
  %2 = tail call ptr @Abc_NtkHaigCollectMembers(ptr noundef %0)
  %3 = getelementptr i8, ptr %2, i64 4
  %.val10 = load i32, ptr %3, align 4, !tbaa !3
  %4 = tail call i32 (ptr, ...) @printf(ptr noundef nonnull dereferenceable(1) @.str.3, i32 noundef %.val10)
  %5 = tail call ptr @Abc_NtkHaigCreateClasses(ptr noundef %2)
  %6 = getelementptr i8, ptr %5, i64 4
  %.val9 = load i32, ptr %6, align 4, !tbaa !3
  %.val8 = load i32, ptr %3, align 4, !tbaa !3
  %7 = sitofp i32 %.val8 to float
  %8 = sitofp i32 %.val9 to float
  %9 = fdiv float %7, %8
  %10 = fpext float %9 to double
  %11 = tail call i32 (ptr, ...) @printf(ptr noundef nonnull dereferenceable(1) @.str.4, i32 noundef %.val9, double noundef %10)
  %12 = getelementptr inbounds nuw i8, ptr %2, i64 8
  %13 = load ptr, ptr %12, align 8, !tbaa !10
  %.not.i = icmp eq ptr %13, null
  br i1 %.not.i, label %Vec_PtrFree.exit, label %14

14:                                               ; preds = %1
  tail call void @free(ptr noundef nonnull %13) #10
  br label %Vec_PtrFree.exit

Vec_PtrFree.exit:                                 ; preds = %1, %14
  tail call void @free(ptr noundef nonnull %2) #10
  %15 = getelementptr inbounds nuw i8, ptr %5, i64 8
  %16 = load ptr, ptr %15, align 8, !tbaa !10
  %.not.i11 = icmp eq ptr %16, null
  br i1 %.not.i11, label %Vec_PtrFree.exit12, label %17

17:                                               ; preds = %Vec_PtrFree.exit
  tail call void @free(ptr noundef nonnull %16) #10
  br label %Vec_PtrFree.exit12

Vec_PtrFree.exit12:                               ; preds = %Vec_PtrFree.exit, %17
  tail call void @free(ptr noundef nonnull %5) #10
  ret void
}